target datalayout = "e-m:e-p270:32:32-p271:32:32-p272:64:64-i64:64-i128:128-f80:128-n8:16:32:64-S128"
target triple = "x86_64-pc-linux-gnu"

%struct.SHAstate_st = type { i32, i32, i32, i32, i32, i32, i32, [16 x i32], i32 }

; Function Attrs: nounwind uwtable
define internal void @sha1_update(ptr noundef %0, ptr noundef %1, i64 noundef %2) #0 {
  %4 = alloca ptr, align 8
  %5 = alloca ptr, align 8
  %6 = alloca i64, align 8
  %7 = alloca ptr, align 8
  %8 = alloca i64, align 8
  store ptr %0, ptr %4, align 8, !tbaa !47
  store ptr %1, ptr %5, align 8, !tbaa !12
  store i64 %2, ptr %6, align 8, !tbaa !20
  call void @llvm.lifetime.start.p0(i64 8, ptr %7) #6
  %9 = load ptr, ptr %5, align 8, !tbaa !12
  store ptr %9, ptr %7, align 8, !tbaa !10
  call void @llvm.lifetime.start.p0(i64 8, ptr %8) #6
  %10 = load ptr, ptr %4, align 8, !tbaa !47
  %11 = getelementptr inbounds nuw %struct.SHAstate_st, ptr %10, i32 0, i32 8
  %12 = load i32, ptr %11, align 4, !tbaa !49
  %13 = zext i32 %12 to i64
  store i64 %13, ptr %8, align 8, !tbaa !20
  %14 = icmp ne i64 %13, 0
  br i1 %14, label %15, label %34

15:                                               ; preds = %3
  %16 = load i64, ptr %8, align 8, !tbaa !20
  %17 = sub i64 64, %16
  store i64 %17, ptr %8, align 8, !tbaa !20
  %18 = load i64, ptr %6, align 8, !tbaa !20
  %19 = load i64, ptr %8, align 8, !tbaa !20
  %20 = icmp ult i64 %18, %19
  br i1 %20, label %21, label %23

21:                                               ; preds = %15
  %22 = load i64, ptr %6, align 8, !tbaa !20
  store i64 %22, ptr %8, align 8, !tbaa !20
  br label %23

23:                                               ; preds = %21, %15
  %24 = load ptr, ptr %4, align 8, !tbaa !47
  %25 = load ptr, ptr %7, align 8, !tbaa !10
  %26 = load i64, ptr %8, align 8, !tbaa !20
  %27 = call i32 @SHA1_Update(ptr noundef %24, ptr noundef %25, i64 noundef %26)
  %28 = load i64, ptr %8, align 8, !tbaa !20
  %29 = load ptr, ptr %7, align 8, !tbaa !10
  %30 = getelementptr inbounds nuw i8, ptr %29, i64 %28
  store ptr %30, ptr %7, align 8, !tbaa !10
  %31 = load i64, ptr %8, align 8, !tbaa !20
  %32 = load i64, ptr %6, align 8, !tbaa !20
  %33 = sub i64 %32, %31
  store i64 %33, ptr %6, align 8, !tbaa !20
  br label %34

34:                                               ; preds = %23, %3
  %35 = load i64, ptr %6, align 8, !tbaa !20
  %36 = urem i64 %35, 64
  store i64 %36, ptr %8, align 8, !tbaa !20
  %37 = load i64, ptr %8, align 8, !tbaa !20
  %38 = load i64, ptr %6, align 8, !tbaa !20
  %39 = sub i64 %38, %37
  store i64 %39, ptr %6, align 8, !tbaa !20
  %40 = load i64, ptr %6, align 8, !tbaa !20
  %41 = icmp ne i64 %40, 0
  br i1 %41, label %42, label %78

42:                                               ; preds = %34
  %43 = load ptr, ptr %4, align 8, !tbaa !47
  %44 = load ptr, ptr %7, align 8, !tbaa !10
  %45 = load i64, ptr %6, align 8, !tbaa !20
  %46 = udiv i64 %45, 64
  call void @sha1_block_data_order(ptr noundef %43, ptr noundef %44, i64 noundef %46)
  %47 = load i64, ptr %6, align 8, !tbaa !20
  %48 = load ptr, ptr %7, align 8, !tbaa !10
  %49 = getelementptr inbounds nuw i8, ptr %48, i64 %47
  store ptr %49, ptr %7, align 8, !tbaa !10
  %50 = load i64, ptr %6, align 8, !tbaa !20
  %51 = lshr i64 %50, 29
  %52 = load ptr, ptr %4, align 8, !tbaa !47
  %53 = getelementptr inbounds nuw %struct.SHAstate_st, ptr %52, i32 0, i32 6
  %54 = load i32, ptr %53, align 4, !tbaa !50
  %55 = zext i32 %54 to i64
  %56 = add i64 %55, %51
  %57 = trunc i64 %56 to i32
  store i32 %57, ptr %53, align 4, !tbaa !50
  %58 = load i64, ptr %6, align 8, !tbaa !20
  %59 = shl i64 %58, 3
  store i64 %59, ptr %6, align 8, !tbaa !20
  %60 = load ptr, ptr %4, align 8, !tbaa !47
  %61 = getelementptr inbounds nuw %struct.SHAstate_st, ptr %60, i32 0, i32 5
  %62 = load i32, ptr %61, align 4, !tbaa !51
  %63 = zext i32 %62 to i64
  %64 = add i64 %63, %59
  %65 = trunc i64 %64 to i32
  store i32 %65, ptr %61, align 4, !tbaa !51
  %66 = load ptr, ptr %4, align 8, !tbaa !47
  %67 = getelementptr inbounds nuw %struct.SHAstate_st, ptr %66, i32 0, i32 5
  %68 = load i32, ptr %67, align 4, !tbaa !51
  %69 = load i64, ptr %6, align 8, !tbaa !20
  %70 = trunc i64 %69 to i32
  %71 = icmp ult i32 %68, %70
  br i1 %71, label %72, label %77

72:                                               ; preds = %42
  %73 = load ptr, ptr %4, align 8, !tbaa !47
  %74 = getelementptr inbounds nuw %struct.SHAstate_st, ptr %73, i32 0, i32 6
  %75 = load i32, ptr %74, align 4, !tbaa !50
  %76 = add i32 %75, 1
  store i32 %76, ptr %74, align 4, !tbaa !50
  br label %77

77:                                               ; preds = %72, %42
  br label %78

78:                                               ; preds = %77, %34
  %79 = load i64, ptr %8, align 8, !tbaa !20
  %80 = icmp ne i64 %79, 0
  br i1 %80, label %81, label %86

81:                                               ; preds = %78
  %82 = load ptr, ptr %4, align 8, !tbaa !47
  %83 = load ptr, ptr %7, align 8, !tbaa !10
  %84 = load i64, ptr %8, align 8, !tbaa !20
  %85 = call i32 @SHA1_Update(ptr noundef %82, ptr noundef %83, i64 noundef %84)
  br label %86

86:                                               ; preds = %81, %78
  call void @llvm.lifetime.end.p0(i64 8, ptr %8) #6
  call void @llvm.lifetime.end.p0(i64 8, ptr %7) #6
  ret void
}