; Function Attrs: nounwind uwtable
define internal fastcc void @sha1_update(ptr noundef %0, ptr noundef %1, i64 noundef %2) unnamed_addr #1 {
  %4 = getelementptr inbounds nuw i8, ptr %0, i64 92
  %5 = load i32, ptr %4, align 4, !tbaa !15
  %.not = icmp eq i32 %5, 0
  br i1 %.not, label %12, label %6

6:                                                ; preds = %3
  %7 = zext i32 %5 to i64
  %8 = sub nsw i64 64, %7
  %spec.select = tail call i64 @llvm.umin.i64(i64 %2, i64 %8)
  %9 = tail call i32 @SHA1_Update(ptr noundef nonnull %0, ptr noundef %1, i64 noundef %spec.select) #7
  %10 = getelementptr inbounds nuw i8, ptr %1, i64 %spec.select
  %11 = sub i64 %2, %spec.select
  br label %12

12:                                               ; preds = %6, %3
  %.033 = phi i64 [ %11, %6 ], [ %2, %3 ]
  %.032 = phi ptr [ %10, %6 ], [ %1, %3 ]
  %13 = and i64 %.033, 63
  %14 = and i64 %.033, -64
  %.not39 = icmp eq i64 %14, 0
  br i1 %.not39, label %30, label %15

15:                                               ; preds = %12
  %16 = lshr i64 %.033, 6
  tail call void @sha1_block_data_order(ptr noundef nonnull %0, ptr noundef %.032, i64 noundef %16) #7
  %17 = getelementptr inbounds nuw i8, ptr %.032, i64 %14
  %18 = lshr i64 %.033, 29
  %19 = getelementptr inbounds nuw i8, ptr %0, i64 24
  %20 = load i32, ptr %19, align 4, !tbaa !16
  %21 = trunc i64 %18 to i32
  %22 = add i32 %20, %21
  store i32 %22, ptr %19, align 4, !tbaa !16
  %23 = getelementptr inbounds nuw i8, ptr %0, i64 20
  %24 = load i32, ptr %23, align 4, !tbaa !17
  %.tr = trunc i64 %14 to i32
  %25 = shl i32 %.tr, 3
  %26 = add i32 %24, %25
  store i32 %26, ptr %23, align 4, !tbaa !17
  %27 = icmp ult i32 %26, %25
  br i1 %27, label %28, label %30

28:                                               ; preds = %15
  %29 = add i32 %22, 1
  store i32 %29, ptr %19, align 4, !tbaa !16
  br label %30

30:                                               ; preds = %15, %28, %12
  %.1 = phi ptr [ %17, %28 ], [ %17, %15 ], [ %.032, %12 ]
  %.not40 = icmp eq i64 %13, 0
  br i1 %.not40, label %33, label %31

31:                                               ; preds = %30
  %32 = tail call i32 @SHA1_Update(ptr noundef nonnull %0, ptr noundef %.1, i64 noundef %13) #7
  br label %33

33:                                               ; preds = %31, %30
  ret void
}